Certificate:
    Data:
        Version: 3 (0x2)
        Serial Number: 0 (0x0)
        Signature Algorithm: sha256WithRSAEncryption
        Issuer: C=CN, ST=shanghai, L=shanghai, O=juneyao, OU=juneyaokc, CN=*.juneyaokc.com/emailAddress=i@sjhz.cf
        Validity
            Not Before: Nov 28 00:21:36 2021 GMT
            Not After : Nov 26 00:21:36 2031 GMT
        Subject: C=CN, ST=shanghai, O=juneyao, OU=juneyaokc, CN=*.juneyaokc.com/emailAddress= i@sjhz.cf
        Subject Public Key Info:
            Public Key Algorithm: rsaEncryption
                RSA Public-Key: (2048 bit)
                Modulus:
                    00:c3:81:8b:f4:fd:0a:21:8f:ac:68:78:fd:9d:45:
                    fc:a6:92:e9:a9:eb:6d:26:cb:ca:96:e2:e6:4e:79:
                    94:50:a8:b3:1c:e6:0e:00:c3:93:11:c1:34:ba:a1:
                    54:60:bf:60:28:c8:9e:87:6d:40:aa:bf:55:f2:49:
                    b6:31:d1:e1:23:02:86:69:89:de:e3:b4:20:cf:ce:
                    dc:ee:94:12:7f:38:24:98:ac:06:ce:3c:6e:20:96:
                    70:d8:44:f5:1f:14:f2:6d:b0:b6:e7:0d:cc:9a:b8:
                    99:37:f4:b1:40:2a:ba:05:3f:d6:eb:2c:aa:e8:56:
                    d0:1a:3f:b8:e7:48:17:86:d0:37:2e:40:ac:71:ea:
                    9d:ea:60:00:13:20:e5:ca:82:91:7c:74:7e:f1:50:
                    9a:b7:95:e5:39:60:04:9e:8f:60:f6:35:3d:b8:ce:
                    68:07:eb:36:e2:fe:22:c2:a3:b9:10:e0:3e:57:a3:
                    57:cd:13:39:1b:0d:62:cc:5b:59:a2:f4:0f:0e:b9:
                    a3:9b:54:07:dc:f7:1d:ad:31:79:4e:86:1b:5c:b0:
                    31:ea:ab:c6:63:53:9b:93:e9:ab:b1:98:b5:b5:f6:
                    76:c0:45:b0:4a:74:bd:34:85:ab:d8:c4:9a:98:e7:
                    f3:3f:2d:b2:cf:79:d2:ee:ed:04:3a:3f:21:56:0c:
                    ae:c1
                Exponent: 65537 (0x10001)
        X509v3 extensions:
            X509v3 Basic Constraints: 
                CA:FALSE
            Netscape Comment: 
                OpenSSL Generated Certificate
            X509v3 Subject Key Identifier: 
                20:5E:36:D0:52:75:87:B0:57:85:C8:85:4C:C3:61:D0:A6:97:F4:23
            X509v3 Authority Key Identifier: 
                keyid:13:65:6D:56:2A:51:21:A3:FA:4B:AC:D6:57:05:E9:C8:E4:C1:26:EE

    Signature Algorithm: sha256WithRSAEncryption
         c8:31:fd:05:eb:c2:0d:46:e5:b2:6e:4e:18:02:70:97:47:bf:
         bc:e3:93:4f:e5:22:de:7d:46:95:d5:ab:c3:0a:9f:67:c9:ed:
         d1:02:f2:c3:d7:b2:57:c9:c4:a1:66:94:42:25:07:dd:45:43:
         62:aa:71:b7:27:b7:08:4c:7a:82:84:55:68:65:6f:11:58:85:
         aa:e4:b2:40:39:d8:28:65:59:24:e2:96:0a:0b:01:46:80:d3:
         8e:d3:ac:69:02:4c:1e:41:9a:51:62:fa:ac:e4:86:1d:8b:b4:
         90:bb:d5:95:f1:44:5d:0d:cc:c2:c9:01:ef:f7:54:9e:6c:5c:
         93:72:84:44:fe:ae:dc:0c:6f:ba:e4:89:f0:69:da:9e:7c:89:
         75:78:48:6f:7a:da:e8:d4:80:22:34:78:32:ed:84:0d:ac:68:
         86:d1:9c:40:9d:2d:6e:e8:b6:b8:03:78:23:cd:71:cd:cb:9d:
         c7:68:22:60:4a:72:36:2e:6f:d0:d5:43:a7:0f:9a:a1:e8:3c:
         0d:cf:e2:fb:d0:12:f7:fe:a9:9c:3a:0e:62:e8:b3:fe:d5:b2:
         12:c2:bc:a0:aa:da:76:c3:2b:25:42:93:08:ba:8c:cc:18:80:
         ea:83:08:e3:e7:c2:7b:55:2f:ec:07:79:e6:91:66:ca:f8:27:
         42:b0:41:2d
-----BEGIN CERTIFICATE-----
MIID/zCCAuegAwIBAgIBADANBgkqhkiG9w0BAQsFADCBjTELMAkGA1UEBhMCQ04x
ETAPBgNVBAgMCHNoYW5naGFpMREwDwYDVQQHDAhzaGFuZ2hhaTEQMA4GA1UECgwH
anVuZXlhbzESMBAGA1UECwwJanVuZXlhb2tjMRgwFgYDVQQDDA8qLmp1bmV5YW9r
Yy5jb20xGDAWBgkqhkiG9w0BCQEWCWlAc2poei5jZjAeFw0yMTExMjgwMDIxMzZa
Fw0zMTExMjYwMDIxMzZaMHsxCzAJBgNVBAYTAkNOMREwDwYDVQQIDAhzaGFuZ2hh
aTEQMA4GA1UECgwHanVuZXlhbzESMBAGA1UECwwJanVuZXlhb2tjMRgwFgYDVQQD
DA8qLmp1bmV5YW9rYy5jb20xGTAXBgkqhkiG9w0BCQEWCiBpQHNqaHouY2YwggEi
MA0GCSqGSIb3DQEBAQUAA4IBDwAwggEKAoIBAQDDgYv0/Qohj6xoeP2dRfymkump
620my8qW4uZOeZRQqLMc5g4Aw5MRwTS6oVRgv2AoyJ6HbUCqv1XySbYx0eEjAoZp
id7jtCDPztzulBJ/OCSYrAbOPG4glnDYRPUfFPJtsLbnDcyauJk39LFAKroFP9br
LKroVtAaP7jnSBeG0DcuQKxx6p3qYAATIOXKgpF8dH7xUJq3leU5YASej2D2NT24
zmgH6zbi/iLCo7kQ4D5Xo1fNEzkbDWLMW1mi9A8OuaObVAfc9x2tMXlOhhtcsDHq
q8ZjU5uT6auxmLW19nbARbBKdL00havYxJqY5/M/LbLPedLu7QQ6PyFWDK7BAgMB
AAGjezB5MAkGA1UdEwQCMAAwLAYJYIZIAYb4QgENBB8WHU9wZW5TU0wgR2VuZXJh
dGVkIENlcnRpZmljYXRlMB0GA1UdDgQWBBQgXjbQUnWHsFeFyIVMw2HQppf0IzAf
BgNVHSMEGDAWgBQTZW1WKlEho/pLrNZXBenI5MEm7jANBgkqhkiG9w0BAQsFAAOC
AQEAyDH9BevCDUblsm5OGAJwl0e/vOOTT+Ui3n1GldWrwwqfZ8nt0QLyw9eyV8nE
oWaUQiUH3UVDYqpxtye3CEx6goRVaGVvEViFquSyQDnYKGVZJOKWCgsBRoDTjtOs
aQJMHkGaUWL6rOSGHYu0kLvVlfFEXQ3MwskB7/dUnmxck3KERP6u3AxvuuSJ8Gna
nnyJdXhIb3ra6NSAIjR4Mu2EDaxohtGcQJ0tbui2uAN4I81xzcudx2giYEpyNi5v
0NVDpw+aoeg8Dc/i+9AS9/6pnDoOYuiz/tWyEsK8oKradsMrJUKTCLqMzBiA6oMI
4+fCe1Uv7Ad55pFmyvgnQrBBLQ==
-----END CERTIFICATE-----
